; Function Attrs: mustprogress uwtable
define void @_ZN6icu_778CalendarC2ERKS0_(ptr noundef nonnull align 8 dereferenceable(192) initializes((0, 8), (128, 129), (136, 152), (176, 192)) %0, ptr noundef nonnull align 8 dereferenceable(192) %1) unnamed_addr #1 align 2 personality ptr @__gxx_personality_v0 {
  store ptr getelementptr inbounds nuw inrange(-16, 448) (i8, ptr @_ZTVN6icu_778CalendarE, i64 16), ptr %0, align 8, !tbaa !15
  %3 = getelementptr inbounds nuw i8, ptr %0, i64 128
  store i8 2, ptr %3, align 8, !tbaa !40
  %4 = getelementptr inbounds nuw i8, ptr %0, i64 136
  %5 = getelementptr inbounds nuw i8, ptr %0, i64 176
  tail call void @llvm.memset.p0.i64(ptr noundef nonnull align 8 dereferenceable(16) %4, i8 0, i64 16, i1 false)
  tail call void @llvm.memset.p0.i64(ptr noundef nonnull align 8 dereferenceable(16) %5, i8 0, i64 16, i1 false)
  %6 = invoke noundef nonnull align 8 dereferenceable(192) ptr @_ZN6icu_778CalendaraSERKS0_(ptr noundef nonnull align 8 dereferenceable(192) %0, ptr noundef nonnull align 8 dereferenceable(192) %1)
          to label %7 unwind label %8

7:                                                ; preds = %2
  ret void

8:                                                ; preds = %2
  %9 = landingpad { ptr, i32 }
          cleanup
  tail call void @_ZN6icu_777UObjectD2Ev(ptr noundef nonnull align 8 dereferenceable(8) %0) #25
  resume { ptr, i32 } %9
}